target datalayout = "e-m:e-p270:32:32-p271:32:32-p272:64:64-i64:64-i128:128-f80:128-n8:16:32:64-S128"
target triple = "x86_64-pc-linux-gnu"

%struct.tcg_region_state = type { %struct.QemuMutex, ptr, ptr, i64, i64, i64, i64, i64, i64 }
%struct.QemuMutex = type { %union.pthread_mutex_t, i8 }
%union.pthread_mutex_t = type { %struct.__pthread_mutex_s }
%struct.__pthread_mutex_s = type { i32, i32, i32, i32, i32, i16, i16, %struct.__pthread_internal_list }
%struct.__pthread_internal_list = type { ptr, ptr }
%struct.tcg_region_tree = type { %struct.QemuMutex, ptr }

@region = internal global %struct.tcg_region_state zeroinitializer, align 8
@.str = private unnamed_addr constant [21 x i8] c"../qemu/tcg/region.c\00", align 1
@qemu_mutex_lock_func = external global ptr, align 8
@region_trees = internal global ptr null, align 8
@tree_size = internal global i64 0, align 8

; Function Attrs: nounwind sspstrong uwtable
define internal void @tcg_region_tree_unlock_all() #0 {
  %1 = alloca i64, align 8
  %2 = alloca ptr, align 8
  call void @llvm.lifetime.start.p0(i64 8, ptr %1) #11
  store i64 0, ptr %1, align 8, !annotation !4
  store i64 0, ptr %1, align 8
  br label %3

3:                                                ; preds = %15, %0
  %4 = load i64, ptr %1, align 8
  %5 = load i64, ptr getelementptr inbounds nuw (%struct.tcg_region_state, ptr @region, i32 0, i32 3), align 8
  %6 = icmp ult i64 %4, %5
  br i1 %6, label %7, label %18

7:                                                ; preds = %3
  call void @llvm.lifetime.start.p0(i64 8, ptr %2) #11
  %8 = load ptr, ptr @region_trees, align 8
  %9 = load i64, ptr %1, align 8
  %10 = load i64, ptr @tree_size, align 8
  %11 = mul i64 %9, %10
  %12 = getelementptr inbounds nuw i8, ptr %8, i64 %11
  store ptr %12, ptr %2, align 8
  %13 = load ptr, ptr %2, align 8
  %14 = getelementptr inbounds nuw %struct.tcg_region_tree, ptr %13, i32 0, i32 0
  call void @qemu_mutex_unlock_impl(ptr noundef %14, ptr noundef @.str, i32 noundef 282)
  call void @llvm.lifetime.end.p0(i64 8, ptr %2) #11
  br label %15

15:                                               ; preds = %7
  %16 = load i64, ptr %1, align 8
  %17 = add i64 %16, 1
  store i64 %17, ptr %1, align 8
  br label %3, !llvm.loop !12

18:                                               ; preds = %3
  call void @llvm.lifetime.end.p0(i64 8, ptr %1) #11
  ret void
}

; Function Attrs: nounwind sspstrong uwtable
define internal void @tcg_region_tree_lock_all() #0 {
  %1 = alloca i64, align 8
  %2 = alloca ptr, align 8
  %3 = alloca ptr, align 8
  %4 = alloca ptr, align 8
  %5 = alloca ptr, align 8
  call void @llvm.lifetime.start.p0(i64 8, ptr %1) #11
  store i64 0, ptr %1, align 8, !annotation !4
  store i64 0, ptr %1, align 8
  br label %6

6:                                                ; preds = %25, %0
  %7 = load i64, ptr %1, align 8
  %8 = load i64, ptr getelementptr inbounds nuw (%struct.tcg_region_state, ptr @region, i32 0, i32 3), align 8
  %9 = icmp ult i64 %7, %8
  br i1 %9, label %10, label %28

10:                                               ; preds = %6
  call void @llvm.lifetime.start.p0(i64 8, ptr %2) #11
  %11 = load ptr, ptr @region_trees, align 8
  %12 = load i64, ptr %1, align 8
  %13 = load i64, ptr @tree_size, align 8
  %14 = mul i64 %12, %13
  %15 = getelementptr inbounds nuw i8, ptr %11, i64 %14
  store ptr %15, ptr %2, align 8
  call void @llvm.lifetime.start.p0(i64 8, ptr %3) #11
  br label %16

16:                                               ; preds = %10
  br i1 false, label %17, label %18

17:                                               ; preds = %16
  call void @qemu_build_not_reached_always() #12, !srcloc !10
  unreachable

18:                                               ; preds = %16
  %19 = load atomic i64, ptr @qemu_mutex_lock_func monotonic, align 8
  store i64 %19, ptr %5, align 8
  %20 = load ptr, ptr %5, align 8
  store ptr %20, ptr %4, align 8
  %21 = load ptr, ptr %4, align 8
  store ptr %21, ptr %3, align 8
  %22 = load ptr, ptr %3, align 8
  %23 = load ptr, ptr %2, align 8
  %24 = getelementptr inbounds nuw %struct.tcg_region_tree, ptr %23, i32 0, i32 0
  call void %22(ptr noundef %24, ptr noundef @.str, i32 noundef 271)
  call void @llvm.lifetime.end.p0(i64 8, ptr %3) #11
  call void @llvm.lifetime.end.p0(i64 8, ptr %2) #11
  br label %25

25:                                               ; preds = %18
  %26 = load i64, ptr %1, align 8
  %27 = add i64 %26, 1
  store i64 %27, ptr %1, align 8
  br label %6, !llvm.loop !11

28:                                               ; preds = %6
  call void @llvm.lifetime.end.p0(i64 8, ptr %1) #11
  ret void
}

; Function Attrs: nounwind sspstrong uwtable
define dso_local i64 @tcg_nb_tbs() #0 {
  %1 = alloca i64, align 8
  %2 = alloca i64, align 8
  %3 = alloca ptr, align 8
  call void @llvm.lifetime.start.p0(i64 8, ptr %1) #11
  store i64 0, ptr %1, align 8
  call void @llvm.lifetime.start.p0(i64 8, ptr %2) #11
  store i64 0, ptr %2, align 8, !annotation !4
  call void @tcg_region_tree_lock_all()
  store i64 0, ptr %2, align 8
  br label %4

4:                                                ; preds = %21, %0
  %5 = load i64, ptr %2, align 8
  %6 = load i64, ptr getelementptr inbounds nuw (%struct.tcg_region_state, ptr @region, i32 0, i32 3), align 8
  %7 = icmp ult i64 %5, %6
  br i1 %7, label %8, label %24

8:                                                ; preds = %4
  call void @llvm.lifetime.start.p0(i64 8, ptr %3) #11
  %9 = load ptr, ptr @region_trees, align 8
  %10 = load i64, ptr %2, align 8
  %11 = load i64, ptr @tree_size, align 8
  %12 = mul i64 %10, %11
  %13 = getelementptr inbounds nuw i8, ptr %9, i64 %12
  store ptr %13, ptr %3, align 8
  %14 = load ptr, ptr %3, align 8
  %15 = getelementptr inbounds nuw %struct.tcg_region_tree, ptr %14, i32 0, i32 1
  %16 = load ptr, ptr %15, align 8
  %17 = call i32 @q_tree_nnodes(ptr noundef %16)
  %18 = sext i32 %17 to i64
  %19 = load i64, ptr %1, align 8
  %20 = add i64 %19, %18
  store i64 %20, ptr %1, align 8
  call void @llvm.lifetime.end.p0(i64 8, ptr %3) #11
  br label %21

21:                                               ; preds = %8
  %22 = load i64, ptr %2, align 8
  %23 = add i64 %22, 1
  store i64 %23, ptr %2, align 8
  br label %4, !llvm.loop !13

24:                                               ; preds = %4
  call void @tcg_region_tree_unlock_all()
  %25 = load i64, ptr %1, align 8
  call void @llvm.lifetime.end.p0(i64 8, ptr %2) #11
  call void @llvm.lifetime.end.p0(i64 8, ptr %1) #11
  ret i64 %25
}