; Function Attrs: nounwind sspstrong uwtable
define dso_local i64 @tcg_nb_tbs() local_unnamed_addr #1 {
  %1 = load i64, ptr getelementptr inbounds nuw (i8, ptr @region, i64 64), align 8
  %.not.i = icmp eq i64 %1, 0
  br i1 %.not.i, label %tcg_region_tree_unlock_all.exit, label %.lr.ph.i

.lr.ph.i:                                         ; preds = %0, %.lr.ph.i
  %.06.i = phi i64 [ %8, %.lr.ph.i ], [ 0, %0 ]
  %2 = load ptr, ptr @region_trees, align 8
  %3 = load i64, ptr @tree_size, align 8
  %4 = mul i64 %3, %.06.i
  %5 = getelementptr inbounds nuw i8, ptr %2, i64 %4
  %6 = load atomic i64, ptr @qemu_mutex_lock_func monotonic, align 8
  %7 = inttoptr i64 %6 to ptr
  tail call void %7(ptr noundef %5, ptr noundef nonnull @.str, i32 noundef 271) #12
  %8 = add nuw i64 %.06.i, 1
  %9 = load i64, ptr getelementptr inbounds nuw (i8, ptr @region, i64 64), align 8
  %10 = icmp ult i64 %8, %9
  br i1 %10, label %.lr.ph.i, label %tcg_region_tree_lock_all.exit, !llvm.loop !5

tcg_region_tree_lock_all.exit:                    ; preds = %.lr.ph.i
  %11 = icmp eq i64 %9, 0
  br i1 %11, label %tcg_region_tree_unlock_all.exit, label %.lr.ph

.lr.ph:                                           ; preds = %tcg_region_tree_lock_all.exit, %.lr.ph
  %.09 = phi i64 [ %20, %.lr.ph ], [ 0, %tcg_region_tree_lock_all.exit ]
  %.058 = phi i64 [ %21, %.lr.ph ], [ 0, %tcg_region_tree_lock_all.exit ]
  %12 = load ptr, ptr @region_trees, align 8
  %13 = load i64, ptr @tree_size, align 8
  %14 = mul i64 %13, %.058
  %15 = getelementptr inbounds nuw i8, ptr %12, i64 %14
  %16 = getelementptr inbounds nuw i8, ptr %15, i64 48
  %17 = load ptr, ptr %16, align 8
  %18 = tail call i32 @q_tree_nnodes(ptr noundef %17) #12
  %19 = sext i32 %18 to i64
  %20 = add i64 %.09, %19
  %21 = add nuw i64 %.058, 1
  %22 = load i64, ptr getelementptr inbounds nuw (i8, ptr @region, i64 64), align 8
  %23 = icmp ult i64 %21, %22
  br i1 %23, label %.lr.ph, label %._crit_edge, !llvm.loop !9

._crit_edge:                                      ; preds = %.lr.ph
  %24 = icmp eq i64 %22, 0
  br i1 %24, label %tcg_region_tree_unlock_all.exit, label %.lr.ph.i7

.lr.ph.i7:                                        ; preds = %._crit_edge, %.lr.ph.i7
  %.03.i = phi i64 [ %29, %.lr.ph.i7 ], [ 0, %._crit_edge ]
  %25 = load ptr, ptr @region_trees, align 8
  %26 = load i64, ptr @tree_size, align 8
  %27 = mul i64 %26, %.03.i
  %28 = getelementptr inbounds nuw i8, ptr %25, i64 %27
  tail call void @qemu_mutex_unlock_impl(ptr noundef %28, ptr noundef nonnull @.str, i32 noundef 282) #12
  %29 = add nuw i64 %.03.i, 1
  %30 = load i64, ptr getelementptr inbounds nuw (i8, ptr @region, i64 64), align 8
  %31 = icmp ult i64 %29, %30
  br i1 %31, label %.lr.ph.i7, label %tcg_region_tree_unlock_all.exit, !llvm.loop !8

tcg_region_tree_unlock_all.exit:                  ; preds = %.lr.ph.i7, %0, %tcg_region_tree_lock_all.exit, %._crit_edge
  %.0.lcssa16 = phi i64 [ %20, %._crit_edge ], [ 0, %tcg_region_tree_lock_all.exit ], [ 0, %0 ], [ %20, %.lr.ph.i7 ]
  ret i64 %.0.lcssa16
}